; ModuleID = 'source-C-CXX/61/350.c'
source_filename = "source-C-CXX/61/350.c"
target datalayout = "e-m:e-p270:32:32-p271:32:32-p272:64:64-i64:64-f80:128-n8:16:32:64-S128"
target triple = "x86_64-pc-linux-gnu"

; Function Attrs: nounwind sspstrong uwtable
define dso_local i32 @main() local_unnamed_addr #0 {
  %1 = alloca [300 x i8], align 16
  %2 = getelementptr inbounds [300 x i8], [300 x i8]* %1, i64 0, i64 0
  %3 = call i32 (i8*, ...) bitcast (i32 (...)* @gets to i32 (i8*, ...)*)(i8* nonnull %2) #4
  %4 = load i8, i8* %2, align 16, !tbaa !5
  %5 = sext i8 %4 to i32
  %6 = call i32 @putchar(i32 %5)
  %7 = call i64 @strlen(i8* noundef nonnull %2) #5
  %8 = icmp ugt i64 %7, 1
  br i1 %8, label %9, label %26

9:                                                ; preds = %0, %22
  %10 = phi i64 [ %23, %22 ], [ 1, %0 ]
  %11 = add nsw i64 %10, -1
  %12 = getelementptr inbounds [300 x i8], [300 x i8]* %1, i64 0, i64 %11
  %13 = load i8, i8* %12, align 1, !tbaa !5
  %14 = icmp eq i8 %13, 32
  %15 = getelementptr inbounds [300 x i8], [300 x i8]* %1, i64 0, i64 %10
  %16 = load i8, i8* %15, align 1, !tbaa !5
  %17 = icmp eq i8 %16, 32
  %18 = select i1 %14, i1 %17, i1 false
  br i1 %18, label %22, label %19

19:                                               ; preds = %9
  %20 = sext i8 %16 to i32
  %21 = call i32 @putchar(i32 %20)
  br label %22

22:                                               ; preds = %9, %19
  %23 = add nuw i64 %10, 1
  %24 = call i64 @strlen(i8* noundef nonnull %2) #5
  %25 = icmp ugt i64 %24, %23
  br i1 %25, label %9, label %26, !llvm.loop !8

26:                                               ; preds = %22, %0
  %27 = call i32 @putchar(i32 10)
  ret i32 0
}

declare i32 @gets(...) local_unnamed_addr #1

; Function Attrs: argmemonly mustprogress nofree nounwind readonly willreturn
declare i64 @strlen(i8* nocapture) local_unnamed_addr #2

; Function Attrs: nofree nounwind
declare noundef i32 @putchar(i32 noundef) local_unnamed_addr #3


!llvm.module.flags = !{!0, !1, !2, !3}
!llvm.ident = !{!4}

!0 = !{i32 1, !"wchar_size", i32 4}
!1 = !{i32 7, !"PIC Level", i32 2}
!2 = !{i32 7, !"PIE Level", i32 2}
!3 = !{i32 7, !"uwtable", i32 1}
!4 = !{!"clang version 13.0.0"}
!5 = !{!6, !6, i64 0}
!6 = !{!"omnipotent char", !7, i64 0}
!7 = !{!"Simple C/C++ TBAA"}
!8 = distinct !{!8, !9}
!9 = !{!"llvm.loop.mustprogress"}
